Certificate:
    Data:
        Version: 3 (0x2)
        Serial Number: 4096 (0x1000)
        Signature Algorithm: sha256WithRSAEncryption
        Issuer: C=GB, ST=England, O=Alice Ltd, OU=Alice Ltd Certificate Authority, CN=Alice Ltd Root CA
        Validity
            Not Before: May 22 23:20:09 2017 GMT
            Not After : May 20 23:20:09 2027 GMT
        Subject: C=GB, ST=England, O=Alice Ltd, OU=Alice Ltd Certificate Authority, CN=Alice Ltd Intermediate CA
        Subject Public Key Info:
            Public Key Algorithm: rsaEncryption
            RSA Public Key: (4096 bit)
                Modulus (4096 bit):
                    00:b9:07:bc:e1:4d:1c:1d:ca:59:c5:10:b9:e6:1c:
                    ae:b5:ba:ed:b6:fa:f7:03:f6:6d:7e:71:fa:d0:bf:
                    e1:4b:bd:db:b7:76:c5:a0:d3:1f:b0:18:42:a6:53:
                    ab:2e:7b:e2:ba:a7:1f:55:c6:df:b8:b6:8b:f6:30:
                    d1:e3:68:75:76:4c:cd:63:f4:f4:93:03:8c:1e:29:
                    8a:58:28:3f:55:a8:07:1c:ef:18:8b:ee:14:c7:d1:
                    b1:3c:8c:73:4b:a6:ca:e7:01:64:12:0d:ca:40:93:
                    c4:f3:60:4e:7f:5a:12:6d:b9:7b:e8:5d:80:07:52:
                    62:16:e6:9d:eb:7b:35:e0:ba:67:f2:26:69:c9:f8:
                    2c:11:1d:3e:19:27:80:60:98:10:5c:d8:c9:ea:94:
                    4f:cd:80:c2:55:cb:5f:33:19:7a:bb:e3:40:82:28:
                    81:0b:5e:eb:97:fd:bc:42:8f:db:0a:df:f7:38:fd:
                    f5:fa:fa:36:b6:dc:99:b5:1b:f1:a7:3f:09:5d:52:
                    83:1d:10:54:92:9d:bb:d7:f9:91:5b:45:d5:4f:54:
                    16:51:8d:4f:28:89:91:af:e0:54:77:80:80:0d:f1:
                    64:0a:19:e6:05:23:8a:59:75:22:e6:98:80:ce:9d:
                    ce:6a:01:1e:0d:46:9d:de:26:17:e9:93:b3:a7:97:
                    51:3e:db:1c:10:70:44:63:75:ed:61:60:fd:f6:96:
                    2c:b7:a4:50:a5:a1:27:a5:d0:e8:f5:df:5c:dd:7c:
                    6f:c6:71:6e:f0:e9:70:dc:07:d3:78:27:a6:92:7a:
                    7b:96:d1:1f:bc:37:0d:c1:0a:06:5a:ca:be:51:57:
                    e9:d8:68:ee:5a:f1:91:81:e0:e1:5c:a7:21:73:86:
                    5f:87:1a:df:dc:b0:0b:de:11:de:ef:d3:02:ab:69:
                    15:c1:21:97:35:0d:06:7a:30:13:15:1d:bc:ae:b1:
                    f7:c9:6e:74:68:5c:8c:b6:89:c9:b1:8c:e1:b5:b7:
                    b9:ed:f9:3a:1a:19:35:54:dd:38:66:8f:04:72:00:
                    40:bb:39:81:92:06:c2:f0:73:7a:2a:c3:f6:c0:43:
                    65:63:87:06:8e:3e:4d:23:c6:d4:5d:76:7c:be:47:
                    2a:da:84:75:cb:5b:9a:e1:e0:17:d4:e7:28:ec:0f:
                    05:db:11:de:0b:d2:5d:44:b8:6f:13:22:06:84:7a:
                    fb:00:72:33:bf:70:b7:c6:cc:8f:73:70:58:88:78:
                    28:11:3e:4e:1f:4c:a4:18:21:3e:24:6a:4d:fa:19:
                    57:93:91:99:07:99:fa:50:ea:2e:b8:6d:14:ed:14:
                    3f:b2:4e:2f:41:9a:8b:6c:13:2a:e2:bb:72:5f:4d:
                    56:e2:0d
                Exponent: 65537 (0x10001)
        X509v3 extensions:
            X509v3 Subject Key Identifier: 
                D6:71:8D:76:09:2D:66:1A:50:97:E2:AB:8F:D5:8E:B4:59:4C:DC:0E
            X509v3 Authority Key Identifier: 
                keyid:7A:2C:83:6E:66:15:31:5F:CC:62:D7:2A:81:2D:CB:F5:A8:86:E4:39

            X509v3 Basic Constraints: critical
                CA:TRUE, pathlen:0
            X509v3 Key Usage: critical
                Digital Signature, Certificate Sign, CRL Sign
    Signature Algorithm: sha256WithRSAEncryption
        81:44:45:07:a2:a7:6e:78:87:a8:47:b9:ac:4a:5c:4b:68:12:
        c6:bf:70:59:6f:20:b8:5e:ce:0c:ce:f2:29:14:41:54:10:ca:
        1e:3d:18:a4:05:c2:e4:74:5f:52:f3:94:b3:c5:f1:79:28:c0:
        ed:e5:0a:48:6a:74:87:94:f8:18:e3:05:09:2c:2c:5e:09:78:
        0c:7a:98:cc:38:42:4a:9e:52:cd:d3:f9:1a:5c:31:df:e8:d6:
        80:a5:f5:d3:09:16:92:c6:b3:11:67:c9:7f:d9:bc:40:96:aa:
        fd:10:59:c0:e9:c9:42:97:be:ac:fa:a5:2a:00:fc:01:74:17:
        15:48:f3:70:b1:85:43:25:3d:18:fc:8e:61:2c:2c:b7:16:b0:
        57:2e:ee:82:e0:1a:59:c3:49:a4:6c:db:f6:0d:ee:43:b7:d2:
        8f:f8:77:f3:e6:79:5b:c4:2e:54:26:0a:2c:7f:db:ef:1c:b1:
        70:e2:83:6e:73:58:62:00:1f:c2:7d:aa:7c:50:87:0f:48:d5:
        62:d3:c5:65:24:a9:f6:ea:0a:99:27:df:e6:ac:72:c9:07:49:
        21:9d:b4:29:5d:8c:d6:f8:b3:cb:2c:16:4b:3c:8d:b5:b7:36:
        d0:38:bb:27:dd:e7:78:46:a6:6e:d6:0c:be:e2:62:0b:5c:14:
        f2:4d:93:6c:83:54:75:72:3f:a1:4e:b9:b7:f0:d9:c6:0f:74:
        1b:89:4b:6e:56:7d:c4:ba:9f:d7:b1:f8:f7:b1:b1:b4:92:ac:
        1a:56:90:c4:0f:b7:c6:a7:97:35:d2:f0:46:88:31:8e:6e:fa:
        98:c8:26:02:a4:a4:a7:1c:58:20:08:e7:91:e4:69:5d:6d:1d:
        b6:83:7a:86:df:dd:34:b8:a4:56:b1:8f:3a:58:1e:2f:dd:e0:
        40:c2:0b:7b:0e:14:58:c4:12:95:6a:b8:e1:6a:b3:9c:82:f1:
        85:2f:e1:a9:97:77:11:f8:ae:6e:d3:56:4e:50:8f:95:cc:f3:
        bc:69:35:2c:68:9e:a1:45:5f:cb:4c:50:4c:3d:54:28:7b:e9:
        08:1a:dc:59:0e:c6:ca:69:b1:3d:17:fb:91:e6:fb:10:1a:63:
        88:e1:04:f0:08:82:25:99:30:d5:f6:ef:c9:1b:22:15:8a:2f:
        22:3f:0b:52:ed:af:cc:22:d8:6d:35:9c:71:e5:0e:db:99:a9:
        3f:3c:c4:cf:d9:59:6b:8a:60:8b:6b:e6:51:f4:fd:18:85:dc:
        31:73:6b:80:0a:2a:ca:75:e4:c3:3e:9c:c4:5e:d8:2a:97:e5:
        db:6d:02:3a:06:c2:6a:90:3c:54:e5:5f:8c:ca:e6:88:73:c1:
        6d:c6:39:56:e7:30:85:cd
-----BEGIN CERTIFICATE-----
MIIF3TCCA8WgAwIBAgICEAAwDQYJKoZIhvcNAQELBQAweTELMAkGA1UEBhMCR0Ix
EDAOBgNVBAgMB0VuZ2xhbmQxEjAQBgNVBAoMCUFsaWNlIEx0ZDEoMCYGA1UECwwf
QWxpY2UgTHRkIENlcnRpZmljYXRlIEF1dGhvcml0eTEaMBgGA1UEAwwRQWxpY2Ug
THRkIFJvb3QgQ0EwHhcNMTcwNTIyMjMyMDA5WhcNMjcwNTIwMjMyMDA5WjCBgTEL
MAkGA1UEBhMCR0IxEDAOBgNVBAgMB0VuZ2xhbmQxEjAQBgNVBAoMCUFsaWNlIEx0
ZDEoMCYGA1UECwwfQWxpY2UgTHRkIENlcnRpZmljYXRlIEF1dGhvcml0eTEiMCAG
A1UEAwwZQWxpY2UgTHRkIEludGVybWVkaWF0ZSBDQTCCAiIwDQYJKoZIhvcNAQEB
BQADggIPADCCAgoCggIBALkHvOFNHB3KWcUQueYcrrW67bb69wP2bX5x+tC/4Uu9
27d2xaDTH7AYQqZTqy574rqnH1XG37i2i/Yw0eNodXZMzWP09JMDjB4pilgoP1Wo
BxzvGIvuFMfRsTyMc0umyucBZBINykCTxPNgTn9aEm25e+hdgAdSYhbmnet7NeC6
Z/Imacn4LBEdPhkngGCYEFzYyeqUT82AwlXLXzMZervjQIIogQte65f9vEKP2wrf
9zj99fr6NrbcmbUb8ac/CV1Sgx0QVJKdu9f5kVtF1U9UFlGNTyiJka/gVHeAgA3x
ZAoZ5gUjill1IuaYgM6dzmoBHg1Gnd4mF+mTs6eXUT7bHBBwRGN17WFg/faWLLek
UKWhJ6XQ6PXfXN18b8ZxbvDpcNwH03gnppJ6e5bRH7w3DcEKBlrKvlFX6dho7lrx
kYHg4VynIXOGX4ca39ywC94R3u/TAqtpFcEhlzUNBnowExUdvK6x98ludGhcjLaJ
ybGM4bW3ue35OhoZNVTdOGaPBHIAQLs5gZIGwvBzeirD9sBDZWOHBo4+TSPG1F12
fL5HKtqEdctbmuHgF9TnKOwPBdsR3gvSXUS4bxMiBoR6+wByM79wt8bMj3NwWIh4
KBE+Th9MpBghPiRqTfoZV5ORmQeZ+lDqLrhtFO0UP7JOL0Gai2wTKuK7cl9NVuIN
AgMBAAGjZjBkMB0GA1UdDgQWBBTWcY12CS1mGlCX4quP1Y60WUzcDjAfBgNVHSME
GDAWgBR6LINuZhUxX8xi1yqBLcv1qIbkOTASBgNVHRMBAf8ECDAGAQH/AgEAMA4G
A1UdDwEB/wQEAwIBhjANBgkqhkiG9w0BAQsFAAOCAgEAgURFB6KnbniHqEe5rEpc
S2gSxr9wWW8guF7ODM7yKRRBVBDKHj0YpAXC5HRfUvOUs8XxeSjA7eUKSGp0h5T4
GOMFCSwsXgl4DHqYzDhCSp5SzdP5Glwx3+jWgKX10wkWksazEWfJf9m8QJaq/RBZ
wOnJQpe+rPqlKgD8AXQXFUjzcLGFQyU9GPyOYSwstxawVy7uguAaWcNJpGzb9g3u
Q7fSj/h38+Z5W8QuVCYKLH/b7xyxcOKDbnNYYgAfwn2qfFCHD0jVYtPFZSSp9uoK
mSff5qxyyQdJIZ20KV2M1vizyywWSzyNtbc20Di7J93neEambtYMvuJiC1wU8k2T
bINUdXI/oU65t/DZxg90G4lLblZ9xLqf17H497GxtJKsGlaQxA+3xqeXNdLwRogx
jm76mMgmAqSkpxxYIAjnkeRpXW0dtoN6ht/dNLikVrGPOlgeL93gQMILew4UWMQS
lWq44WqznILxhS/hqZd3EfiubtNWTlCPlczzvGk1LGieoUVfy0xQTD1UKHvpCBrc
WQ7GymmxPRf7keb7EBpjiOEE8AiCJZkw1fbvyRsiFYovIj8LUu2vzCLYbTWcceUO
25mpPzzEz9lZa4pgi2vmUfT9GIXcMXNrgAoqynXkwz6cxF7YKpfl220COgbCapA8
VOVfjMrmiHPBbcY5Vucwhc0=
-----END CERTIFICATE-----
-----BEGIN CERTIFICATE-----
MIIF2DCCA8CgAwIBAgIJAIi3pmu9FKjdMA0GCSqGSIb3DQEBCwUAMHkxCzAJBgNV
BAYTAkdCMRAwDgYDVQQIDAdFbmdsYW5kMRIwEAYDVQQKDAlBbGljZSBMdGQxKDAm
BgNVBAsMH0FsaWNlIEx0ZCBDZXJ0aWZpY2F0ZSBBdXRob3JpdHkxGjAYBgNVBAMM
EUFsaWNlIEx0ZCBSb290IENBMB4XDTE3MDUyMjIzMTI1OVoXDTM3MDUxNzIzMTI1
OVoweTELMAkGA1UEBhMCR0IxEDAOBgNVBAgMB0VuZ2xhbmQxEjAQBgNVBAoMCUFs
aWNlIEx0ZDEoMCYGA1UECwwfQWxpY2UgTHRkIENlcnRpZmljYXRlIEF1dGhvcml0
eTEaMBgGA1UEAwwRQWxpY2UgTHRkIFJvb3QgQ0EwggIiMA0GCSqGSIb3DQEBAQUA
A4ICDwAwggIKAoICAQDfUuceMVNuloeFrhSfeW9KBzfx9iE2Hnm+K05y7cXDsaSg
25PLjdPiIXjGIpBRqJYzCZKzpG2/4dtnsXTI/dw4IKOOfk4HEriVa8y5l/wfe9I5
bICi+P53R60EV8e2iLuI0ZncuFiQjJHygG5rjDX/FKFcWJy1/GWzlXs2rVPfGP5N
TiBuW9sViZC7fT4sW7m5yXvXo8SomaE5cveZCf48lt85EDalOPMyO2H85E0ZTZKN
ejQYSsOUUSs9QuQei02fIhwIejPxcmtE44EPZiIb4E/OKuBCrtg8c4oBgpERYwOR
ljpsgkMstoBAG19MToqfviRF+z9AEPU8vz/o2nV7bbhZhtPx4A22jCmifZRDRyoH
qxCMetwOAnfNfYT5Srk6bVtVoKnolq/13JA1jFO7qfvyKX5O69LilRg43bOkbdhz
4E1HcaU3E/q9dDvoL15+h8R1iu2lHytJ+Y93wWs2md+/zfjmn254MCLTGeGiqceI
deriJNa5vkceqlLz4+eyjiWLU81EJbP+6xWhnX0xIy6SP3G0q/wjalaT6EOba7LZ
nQO0qUNPoiNOq9IltXyaqkPfZsrz7PgBhSCfyXvBhUzG5C4phfiv44PA8K0o20fi
4g7RWQfnshAm1drcKZJ9+HCjggr3RGwWwJXkgl5Ky3gMNeYFE17zaMan9tDlLQID
AQABo2MwYTAdBgNVHQ4EFgQUeiyDbmYVMV/MYtcqgS3L9aiG5DkwHwYDVR0jBBgw
FoAUeiyDbmYVMV/MYtcqgS3L9aiG5DkwDwYDVR0TAQH/BAUwAwEB/zAOBgNVHQ8B
Af8EBAMCAYYwDQYJKoZIhvcNAQELBQADggIBAKOhrzT3ticpeltft48pa0n4N8XC
ndvBeM+kdS5f7Ceh/1eKG48pIPGDBnyIoNFoX6CvUR27a0DNuvawbpcUNIQDZVzH
o2l4C2NUSU0pXcrmhjJEECf/gwYfRsshNXX0Ec9vbYXADjavrIPJRRNk6ubRQtNJ
ZFYJ6G1X8/ijd5cRE3yMsfhlFt3axzTUWN40/YZwauRx2AgTLrwt8aBTHEnmpFLA
gzD7iYnpZYpZVwXu8h12ijIcLEBQNHgJwHei7iR0uti2o1cslnGUZ4xoHRes9ie2
kkUEtpjeA1th65VLApNiiO0EJEGHiOPXDh+XN+YKWlvcp9gyg0IXOMHZ0rlzhIpZ
2l/5pzlasJTQEyt74ZETkhNu6DhkYN2uIpUrB0E0fvlRb5qS3gOY/0nqt1VLV7NS
3BvUFTxNXbEw5Kged9ogvl/3c292Eu3G8Y7odjrdvgqziA3GpfJWSbNn39jnafES
fClXB1e+kScgNHUOm2bYNFTrcd9FM6mdPBG9ngdobZh/wXFNEMtwkr7OPbj52+tM
j1rmAz0MCuf6riG7vrJCNdXxcE7mBV2kSdHAA23Kih0rR/uV13gsVSZyaV59Pp2w
0d9kIGCBFUzV2OsWAD5/KfqCXXrpU58YOxMfU1BiFdk9bNHVvU9vxOFs1gdoJBid
CjccjH8oDqRMLBMh
-----END CERTIFICATE-----
